c__builtin__
set
p0
((lp1
V
p2
aV\u306b\u3083
p3
aV\u3083
p4
aV\u3087
p5
aV\u308b
p6
aV\u308f
p7
aV\u304e\u3083
p8
aV\u30d3\u30e3
p9
aV\u3093
p10
aV\u306b\u3087
p11
aV\u3062\u3085
p12
aV\u3062\u3087
p13
aV\u30a7
p14
aV\u3062\u3083
p15
aV\u30d3\u30e7
p16
aV\u30ab
p17
aV\u30af
p18
aV\u30b3
p19
aV\u30b7
p20
aV\u307f\u3087
p21
aV\u30bb
p22
aV\u30d4\u30e5
p23
aV\u307f\u3083
p24
aV\u30bf
p25
aV\u30c3
p26
aV\u3044
p27
aV\u30c7
p28
aV\u3048
p29
aV\u304c
p30
aV\u30cf
p31
aV\u3050
p32
aV\u30d3
p33
aV\u3072\u3087
p34
aV\u3054
p35
aV\u30d7
p36
aV\u3072\u3083
p37
aV\u3058
p38
aV\u30db
p39
aV\u305c
p40
aV\u30df
p41
aV\u3060
p42
aV\u30e3
p43
aV\u3064
p44
aV\u30e7
p45
aV\u3068
p46
aV\u30eb
p47
aV\u30ae\u30e3
p48
aV\u306c
p49
aV\u30ef
p50
aV\u30ae\u30e7
p51
aV\u3070
p52
aV\u30f3
p53
aV\u3074
p54
aV\u3078
p55
aV\u307c
p56
aV\u3080
p57
aV\u3084
p58
aV\u3088
p59
aV\u4e8c
p60
aV\u30ae\u30e5
p61
aV\u3090
p62
aV\u3072\u3085
p63
aV\u30a4
p64
aV\u30a8
p65
aV\u30ac
p66
aV\u30b0
p67
aV\u30b4
p68
aV\u30b8\u30e3
p69
aV\u30b8
p70
aV\u30bc
p71
aV\u30c0
p72
aV\u30ea\u30e5
p73
aV\u30c4
p74
aV\u30c8
p75
aV\u304b
p76
aV\u30cc
p77
aV\u304f
p78
aV\u30b8\u30e5
p79
aV\u30d0
p80
aV\u3053
p81
aV\u30df\u30e5
p82
aV\u30d4
p83
aV\u3057
p84
aV\u30d8
p85
aV\u305b
p86
aV\u30ea\u30e7
p87
aV\u30dc
p88
aV\u305f
p89
aV\u30ea\u30e3
p90
aV\u30e0
p91
aV\u3063
p92
aV\u30e4
p93
aV\u3067
p94
aV\u30e8
p95
aV\u306b
p96
aV\u30ec
p97
aV\u306f
p98
aV\u30f0
p99
aV\u3073
p100
aV\u3077
p101
aV\u307b
p102
aV\u30fc
p103
aV\u307f
p104
aV\u3081
p105
aV\u3085
p106
aV\u306b\u3085
p107
aV\u3089
p108
aV\u308d
p109
aV\u3091
p110
aV\u30d2\u30e5
p111
aV\u30d2\u30e7
p112
aV\u30d2\u30e3
p113
aV\u3073\u3083
p114
aV\u30c2\u30e7
p115
aV\u3073\u3087
p116
aV\u3073\u3085
p117
aV\u30c2\u30e5
p118
aV\u30da
p119
aV\u30c2\u30e3
p120
aV\u30ad
p121
aV\u3074\u3083
p122
aV\u30b1
p123
aV\u30b5
p124
aV\u30b9
p125
aV\u30bd
p126
aV\u30c1
p127
aV\u3042
p128
aV\u30c5
p129
aV\u30cb\u30e5
p130
aV\u3046
p131
aV\u30c9
p132
aV\u304a
p133
aV\u30cd
p134
aV\u308c
p135
aV\u30d1
p136
aV\u30df\u30e7
p137
aV\u3052
p138
aV\u30d5
p139
aV\u3056
p140
aV\u30d9
p141
aV\u305a
p142
aV\u30dd
p143
aV\u307f\u3085
p144
aV\u30d3\u30e5
p145
aV\u305e
p146
aV\u30e1
p147
aV\u3062
p148
aV\u30e5
p149
aV\u3066
p150
aV\u30e9
p151
aV\u30df\u30e3
p152
aV\u306a
p153
aV\u30ed
p154
aV\u306e
p155
aV\u30f1
p156
aV\u3072
p157
aV\u3076
p158
aV\u307a
p159
aV\u307e
p160
aV\u30cb\u30e3
p161
aV\u3082
p162
aV\u3086
p163
aV\u3058\u3083
p164
aV\u308a
p165
aV\u3058\u3087
p166
aV\u3058\u3085
p167
aV\u3092
p168
aV\u308a\u3085
p169
aV\u30cb\u30e7
p170
aV\u308a\u3087
p171
aV\u30d4\u30e3
p172
aV\u308a\u3083
p173
aV\u30a2
p174
aV\u30a6
p175
aV\u30aa
p176
aV\u30ae
p177
aV\u30b2
p178
aV\u30b6
p179
aV\u30ba
p180
aV\u30be
p181
aV\u30d4\u30e7
p182
aV\u30c2
p183
aV\u30c6
p184
aV\u30ca
p185
aV\u304d
p186
aV\u30ce
p187
aV\u3051
p188
aV\u30d2
p189
aV\u3055
p190
aV\u3074\u3085
p191
aV\u30d6
p192
aV\u3059
p193
aV\u304e
p194
aV\u305d
p195
aV\u30de
p196
aV\u3061
p197
aV\u30e2
p198
aV\u3065
p199
aV\u30e6
p200
aV\u3069
p201
aV\u30ea
p202
aV\u306d
p203
aV\u304e\u3085
p204
aV\u304e\u3087
p205
aV\u3071
p206
aV\u30b8\u30e7
p207
aV\u30f2
p208
aV\u3075
p209
aV\u3079
p210
aV\u3074\u3087
p211
aV\u307d
p212
atp213
Rp214
.