c__builtin__
set
p0
((lp1
V
p2
aV\u306b\u3083
p3
aV\u308b
p4
aV\u308f
p5
aV\u304e\u3083
p6
aV\u30d3\u30e3
p7
aV\u3093
p8
aV\u3062\u3085
p9
aV\u3062\u3087
p10
aV\u3062\u3083
p11
aV\u30d3\u30e7
p12
aV\u30ab
p13
aV\u30af
p14
aV\u30b3
p15
aV\u30b7
p16
aV\u307f\u3087
p17
aV\u30bb
p18
aV\u30d4\u30e5
p19
aV\u307f\u3083
p20
aV\u30bf
p21
aV\u30c3
p22
aV\u3044
p23
aV\u30c7
p24
aV\u3048
p25
aV\u304c
p26
aV\u30cf
p27
aV\u3050
p28
aV\u30d3
p29
aV\u3072\u3087
p30
aV\u3054
p31
aV\u30d7
p32
aV\u3072\u3083
p33
aV\u3058
p34
aV\u30db
p35
aV\u305c
p36
aV\u30df
p37
aV\u3060
p38
aV\u3064
p39
aV\u3068
p40
aV\u30eb
p41
aV\u30ae\u30e3
p42
aV\u306c
p43
aV\u30ef
p44
aV\u30ae\u30e7
p45
aV\u3070
p46
aV\u30f3
p47
aV\u3074
p48
aV\u3078
p49
aV\u307c
p50
aV\u30b7\u30e7
p51
aV\u3080
p52
aV\u30b7\u30e5
p53
aV\u30b7\u30e3
p54
aV\u3084
p55
aV\u3088
p56
aV\u4e8c
p57
aV\u30ae\u30e5
p58
aV\u3090
p59
aV\u3072\u3085
p60
aV\u30a4
p61
aV\u30c1\u30a7
p62
aV\u30a8
p63
aV\u30ac
p64
aV\u30b0
p65
aV\u30b4
p66
aV\u30b8\u30e3
p67
aV\u30b8
p68
aV\u30bc
p69
aV\u3057\u3087
p70
aV\u30c0
p71
aV\u3057\u3085
p72
aV\u30ea\u30e5
p73
aV\u3057\u3083
p74
aV\u30c4
p75
aV\u30c8
p76
aV\u304b
p77
aV\u30cc
p78
aV\u304f
p79
aV\u30b8\u30e5
p80
aV\u30d0
p81
aV\u3053
p82
aV\u30df\u30e5
p83
aV\u30d4
p84
aV\u3057
p85
aV\u30d8
p86
aV\u305b
p87
aV\u30ea\u30e7
p88
aV\u30dc
p89
aV\u305f
p90
aV\u30ea\u30e3
p91
aV\u30e0
p92
aV\u30c1\u30e3
p93
aV\u30c1\u30e5
p94
aV\u30e4
p95
aV\u3067
p96
aV\u30e8
p97
aV\u306b
p98
aV\u30ec
p99
aV\u306f
p100
aV\u30f0
p101
aV\u3073
p102
aV\u3077
p103
aV\u307b
p104
aV\u30fc
p105
aV\u307f
p106
aV\u3081
p107
aV\u306b\u3087
p108
aV\u306b\u3085
p109
aV\u3089
p110
aV\u308d
p111
aV\u3091
p112
aV\u30d2\u30e5
p113
aV\u30d2\u30e7
p114
aV\u30d2\u30e3
p115
aV\u3073\u3083
p116
aV\u30c2\u30e7
p117
aV\u3073\u3087
p118
aV\u3073\u3085
p119
aV\u30c2\u30e5
p120
aV\u30da
p121
aV\u30c2\u30e3
p122
aV\u30ad
p123
aV\u3074\u3083
p124
aV\u30b1
p125
aV\u30b5
p126
aV\u30b9
p127
aV\u30bd
p128
aV\u30c1
p129
aV\u3042
p130
aV\u30c5
p131
aV\u30cb\u30e5
p132
aV\u3046
p133
aV\u30c9
p134
aV\u304a
p135
aV\u30cd
p136
aV\u3063
p137
aV\u308c
p138
aV\u30d1
p139
aV\u30df\u30e7
p140
aV\u3052
p141
aV\u30d5
p142
aV\u3056
p143
aV\u30d9
p144
aV\u305a
p145
aV\u30dd
p146
aV\u307f\u3085
p147
aV\u30d3\u30e5
p148
aV\u305e
p149
aV\u30e1
p150
aV\u3061\u3083
p151
aV\u3062
p152
aV\u3061\u3085
p153
aV\u30c1\u30e7
p154
aV\u3061\u3087
p155
aV\u3066
p156
aV\u30e9
p157
aV\u30df\u30e3
p158
aV\u306a
p159
aV\u30ed
p160
aV\u306e
p161
aV\u30f1
p162
aV\u3072
p163
aV\u3076
p164
aV\u307a
p165
aV\u307e
p166
aV\u30cb\u30e3
p167
aV\u3082
p168
aV\u3086
p169
aV\u3058\u3083
p170
aV\u308a
p171
aV\u3058\u3087
p172
aV\u3058\u3085
p173
aV\u3092
p174
aV\u308a\u3085
p175
aV\u30cb\u30e7
p176
aV\u308a\u3087
p177
aV\u30d4\u30e3
p178
aV\u308a\u3083
p179
aV\u30a2
p180
aV\u30a6
p181
aV\u30aa
p182
aV\u30ae
p183
aV\u30b2
p184
aV\u30b6
p185
aV\u30ba
p186
aV\u30be
p187
aV\u30d4\u30e7
p188
aV\u30c2
p189
aV\u30c6
p190
aV\u30ca
p191
aV\u304d
p192
aV\u30ce
p193
aV\u3051
p194
aV\u30d2
p195
aV\u3055
p196
aV\u3074\u3085
p197
aV\u30d6
p198
aV\u3059
p199
aV\u304e
p200
aV\u305d
p201
aV\u30de
p202
aV\u3061
p203
aV\u30e2
p204
aV\u3065
p205
aV\u30e6
p206
aV\u3069
p207
aV\u30ea
p208
aV\u306d
p209
aV\u304e\u3085
p210
aV\u304e\u3087
p211
aV\u3071
p212
aV\u30b8\u30e7
p213
aV\u30f2
p214
aV\u3075
p215
aV\u3079
p216
aV\u3074\u3087
p217
aV\u307d
p218
atp219
Rp220
.