c__builtin__
set
p0
((lp1
V
p2
aV\u306b\u3083
p3
aV\u308b
p4
aV\u308f
p5
aV\u304e\u3083
p6
aV\u30d3\u30e3
p7
aV\u3093
p8
aV\u3062\u3085
p9
aV\u3062\u3087
p10
aV\u3062\u3083
p11
aV\u30d3\u30e7
p12
aV\u30ab
p13
aV\u30af
p14
aV\u30b3
p15
aV\u30b7
p16
aV\u307f\u3087
p17
aV\u30bb
p18
aV\u30d4\u30e5
p19
aV\u307f\u3083
p20
aV\u30bf
p21
aV\u30c3
p22
aV\u3044
p23
aV\u30c7
p24
aV\u3048
p25
aV\u304c
p26
aV\u30cf
p27
aV\u3050
p28
aV\u30d3
p29
aV\u3072\u3087
p30
aV\u3054
p31
aV\u30d7
p32
aV\u3072\u3083
p33
aV\u3058
p34
aV\u30db
p35
aV\u305c
p36
aV\u30df
p37
aV\u3060
p38
aV\u3064
p39
aV\u3068
p40
aV\u30eb
p41
aV\u30ae\u30e3
p42
aV\u306c
p43
aV\u30ef
p44
aV\u30ae\u30e7
p45
aV\u3070
p46
aV\u30f3
p47
aV\u3074
p48
aV\u3078
p49
aV\u307c
p50
aV\u30b7\u30e7
p51
aV\u3080
p52
aV\u30b7\u30e5
p53
aV\u30b7\u30e3
p54
aV\u3084
p55
aV\u3088
p56
aV\u4e8c
p57
aV\u30ae\u30e5
p58
aV\u3090
p59
aV\u3072\u3085
p60
aV\u30a4
p61
aV\u30a8
p62
aV\u30ac
p63
aV\u30b0
p64
aV\u30b4
p65
aV\u30b8\u30e3
p66
aV\u30b8
p67
aV\u30bc
p68
aV\u3057\u3087
p69
aV\u30c0
p70
aV\u3057\u3085
p71
aV\u30ea\u30e5
p72
aV\u3057\u3083
p73
aV\u30c4
p74
aV\u30c8
p75
aV\u304b
p76
aV\u30cc
p77
aV\u304f
p78
aV\u30b8\u30e5
p79
aV\u30d0
p80
aV\u3053
p81
aV\u30df\u30e5
p82
aV\u30d4
p83
aV\u3057
p84
aV\u30d8
p85
aV\u305b
p86
aV\u30ea\u30e7
p87
aV\u30dc
p88
aV\u305f
p89
aV\u30ea\u30e3
p90
aV\u30e0
p91
aV\u30c1\u30e3
p92
aV\u30c1\u30e5
p93
aV\u30e4
p94
aV\u3067
p95
aV\u30e8
p96
aV\u306b
p97
aV\u30ec
p98
aV\u306f
p99
aV\u30f0
p100
aV\u3073
p101
aV\u3077
p102
aV\u307b
p103
aV\u30fc
p104
aV\u307f
p105
aV\u3081
p106
aV\u306b\u3087
p107
aV\u306b\u3085
p108
aV\u3089
p109
aV\u308d
p110
aV\u3091
p111
aV\u30d2\u30e5
p112
aV\u30d2\u30e7
p113
aV\u30d2\u30e3
p114
aV\u3073\u3083
p115
aV\u30c2\u30e7
p116
aV\u3073\u3087
p117
aV\u3073\u3085
p118
aV\u30c2\u30e5
p119
aV\u30da
p120
aV\u30c2\u30e3
p121
aV\u30ad
p122
aV\u3074\u3083
p123
aV\u30b1
p124
aV\u30b5
p125
aV\u30b9
p126
aV\u30bd
p127
aV\u30c1
p128
aV\u3042
p129
aV\u30c5
p130
aV\u30cb\u30e5
p131
aV\u3046
p132
aV\u30c9
p133
aV\u304a
p134
aV\u30cd
p135
aV\u3063
p136
aV\u308c
p137
aV\u30d1
p138
aV\u30df\u30e7
p139
aV\u3052
p140
aV\u30d5
p141
aV\u3056
p142
aV\u30d9
p143
aV\u305a
p144
aV\u30dd
p145
aV\u307f\u3085
p146
aV\u30d3\u30e5
p147
aV\u305e
p148
aV\u30e1
p149
aV\u3061\u3083
p150
aV\u3062
p151
aV\u3061\u3085
p152
aV\u30c1\u30e7
p153
aV\u3061\u3087
p154
aV\u3066
p155
aV\u30e9
p156
aV\u30df\u30e3
p157
aV\u306a
p158
aV\u30ed
p159
aV\u306e
p160
aV\u30f1
p161
aV\u3072
p162
aV\u3076
p163
aV\u307a
p164
aV\u307e
p165
aV\u30cb\u30e3
p166
aV\u3082
p167
aV\u3086
p168
aV\u3058\u3083
p169
aV\u308a
p170
aV\u3058\u3087
p171
aV\u3058\u3085
p172
aV\u3092
p173
aV\u308a\u3085
p174
aV\u30cb\u30e7
p175
aV\u308a\u3087
p176
aV\u30d4\u30e3
p177
aV\u308a\u3083
p178
aV\u30a2
p179
aV\u30a6
p180
aV\u30aa
p181
aV\u30ae
p182
aV\u30b2
p183
aV\u30b6
p184
aV\u30ba
p185
aV\u30be
p186
aV\u30d4\u30e7
p187
aV\u30c2
p188
aV\u30c6
p189
aV\u30ca
p190
aV\u304d
p191
aV\u30ce
p192
aV\u3051
p193
aV\u30d2
p194
aV\u3055
p195
aV\u3074\u3085
p196
aV\u30d6
p197
aV\u3059
p198
aV\u304e
p199
aV\u305d
p200
aV\u30de
p201
aV\u3061
p202
aV\u30e2
p203
aV\u3065
p204
aV\u30e6
p205
aV\u3069
p206
aV\u30ea
p207
aV\u306d
p208
aV\u304e\u3085
p209
aV\u304e\u3087
p210
aV\u3071
p211
aV\u30b8\u30e7
p212
aV\u30f2
p213
aV\u3075
p214
aV\u3079
p215
aV\u3074\u3087
p216
aV\u307d
p217
atp218
Rp219
.